; Function Attrs: nofree norecurse nosync nounwind memory(read, inaccessiblemem: none) uwtable
define ptr @Aig_TableLookup(ptr noundef readonly captures(none) %0, ptr noundef readonly captures(none) %1) local_unnamed_addr #2 {
  %3 = getelementptr inbounds nuw i8, ptr %0, i64 160
  %4 = load ptr, ptr %3, align 8
  %5 = icmp eq ptr %4, null
  br i1 %5, label %.loopexit, label %6

6:                                                ; preds = %2
  %7 = getelementptr i8, ptr %1, i64 8
  %.val = load ptr, ptr %7, align 8
  %8 = ptrtoint ptr %.val to i64
  %9 = and i64 %8, -2
  %10 = inttoptr i64 %9 to ptr
  %11 = getelementptr i8, ptr %10, i64 24
  %.val20 = load i64, ptr %11, align 8
  %12 = and i64 %.val20, 4294967232
  %.not = icmp eq i64 %12, 0
  br i1 %.not, label %.loopexit, label %13

13:                                               ; preds = %6
  %14 = getelementptr i8, ptr %1, i64 16
  %.val19 = load ptr, ptr %14, align 8
  %15 = ptrtoint ptr %.val19 to i64
  %16 = and i64 %15, -2
  %17 = inttoptr i64 %16 to ptr
  %18 = getelementptr i8, ptr %17, i64 24
  %.val21 = load i64, ptr %18, align 8
  %19 = and i64 %.val21, 4294967232
  %.not17 = icmp eq i64 %19, 0
  br i1 %.not17, label %.loopexit, label %20

20:                                               ; preds = %13
  %21 = getelementptr inbounds nuw i8, ptr %0, i64 168
  %22 = load i32, ptr %21, align 8
  %23 = getelementptr i8, ptr %1, i64 24
  %.val.i = load i64, ptr %23, align 8
  %24 = and i64 %.val.i, 7
  %25 = icmp eq i64 %24, 6
  %26 = select i1 %25, i64 1699, i64 0
  %27 = getelementptr inbounds nuw i8, ptr %10, i64 36
  %28 = load i32, ptr %27, align 4
  %29 = mul nsw i32 %28, 7937
  %30 = sext i32 %29 to i64
  %31 = getelementptr inbounds nuw i8, ptr %17, i64 36
  %32 = load i32, ptr %31, align 4
  %33 = mul nsw i32 %32, 2971
  %34 = sext i32 %33 to i64
  %35 = trunc i64 %8 to i1
  %36 = select i1 %35, i64 911, i64 0
  %37 = trunc i64 %15 to i1
  %38 = select i1 %37, i64 353, i64 0
  %39 = xor i64 %38, %36
  %40 = xor i64 %39, %30
  %41 = xor i64 %40, %26
  %42 = xor i64 %41, %34
  %43 = sext i32 %22 to i64
  %44 = urem i64 %42, %43
  %45 = getelementptr inbounds ptr, ptr %4, i64 %44
  %.027 = load ptr, ptr %45, align 8
  %.not1828 = icmp eq ptr %.027, null
  br i1 %.not1828, label %.loopexit, label %.lr.ph

.lr.ph:                                           ; preds = %20, %56
  %.029 = phi ptr [ %.0, %56 ], [ %.027, %20 ]
  %46 = getelementptr i8, ptr %.029, i64 8
  %.0.val = load ptr, ptr %46, align 8
  %47 = icmp eq ptr %.0.val, %.val
  br i1 %47, label %48, label %56

48:                                               ; preds = %.lr.ph
  %49 = getelementptr i8, ptr %.029, i64 16
  %.0.val23 = load ptr, ptr %49, align 8
  %50 = icmp eq ptr %.0.val23, %.val19
  br i1 %50, label %51, label %56

51:                                               ; preds = %48
  %52 = getelementptr i8, ptr %.029, i64 24
  %.0.val25 = load i64, ptr %52, align 8
  %53 = xor i64 %.0.val25, %.val.i
  %54 = and i64 %53, 7
  %55 = icmp eq i64 %54, 0
  br i1 %55, label %.loopexit, label %56

56:                                               ; preds = %.lr.ph, %48, %51
  %.0 = load ptr, ptr %.029, align 8
  %.not18 = icmp eq ptr %.0, null
  br i1 %.not18, label %.loopexit, label %.lr.ph, !llvm.loop !10

.loopexit:                                        ; preds = %51, %56, %20, %2, %6, %13
  %.016 = phi ptr [ null, %13 ], [ null, %6 ], [ null, %2 ], [ null, %20 ], [ %.029, %51 ], [ null, %56 ]
  ret ptr %.016
}